; Function Attrs: nounwind uwtable
define noalias noundef ptr @Ptr_AbcDeriveBoxes(ptr noundef readonly captures(none) %0) local_unnamed_addr #0 {
  %2 = getelementptr i8, ptr %0, i64 80
  %.val23 = load ptr, ptr %2, align 8, !tbaa !48
  %3 = getelementptr i8, ptr %.val23, i64 4
  %.val23.val = load i32, ptr %3, align 4, !tbaa !35
  %4 = getelementptr i8, ptr %0, i64 124
  %.val24 = load i32, ptr %4, align 4, !tbaa !31
  %5 = add nsw i32 %.val24, %.val23.val
  %6 = tail call noalias dereferenceable_or_null(16) ptr @malloc(i64 noundef 16) #20
  %7 = getelementptr inbounds nuw i8, ptr %6, i64 4
  store i32 0, ptr %7, align 4, !tbaa !35
  store i32 %5, ptr %6, align 8, !tbaa !36
  %.not.i = icmp eq i32 %5, 0
  br i1 %.not.i, label %Vec_PtrAllocExact.exit, label %8

8:                                                ; preds = %1
  %9 = sext i32 %5 to i64
  %10 = shl nsw i64 %9, 3
  %11 = tail call noalias ptr @malloc(i64 noundef %10) #20
  br label %Vec_PtrAllocExact.exit

Vec_PtrAllocExact.exit:                           ; preds = %1, %8
  %12 = phi ptr [ %11, %8 ], [ null, %1 ]
  %13 = getelementptr inbounds nuw i8, ptr %6, i64 8
  store ptr %12, ptr %13, align 8, !tbaa !32
  %14 = icmp sgt i32 %.val23.val, 0
  br i1 %14, label %.lr.ph, label %.critedge.preheader

.critedge.preheader:                              ; preds = %Vec_PtrPush.exit, %Vec_PtrAllocExact.exit
  %15 = phi i32 [ %5, %Vec_PtrAllocExact.exit ], [ %49, %Vec_PtrPush.exit ]
  %16 = phi i32 [ 0, %Vec_PtrAllocExact.exit ], [ %51, %Vec_PtrPush.exit ]
  %17 = getelementptr inbounds nuw i8, ptr %0, i64 32
  %18 = load ptr, ptr %17, align 8, !tbaa !30
  %19 = getelementptr i8, ptr %18, i64 4
  %.val2236 = load i32, ptr %19, align 4, !tbaa !35
  %20 = icmp sgt i32 %.val2236, 0
  br i1 %20, label %.lr.ph38, label %.critedge2

.lr.ph:                                           ; preds = %Vec_PtrAllocExact.exit, %Vec_PtrPush.exit
  %21 = phi i32 [ %49, %Vec_PtrPush.exit ], [ %5, %Vec_PtrAllocExact.exit ]
  %22 = phi i32 [ %51, %Vec_PtrPush.exit ], [ 0, %Vec_PtrAllocExact.exit ]
  %indvars.iv = phi i64 [ %indvars.iv.next, %Vec_PtrPush.exit ], [ 0, %Vec_PtrAllocExact.exit ]
  %23 = phi ptr [ %54, %Vec_PtrPush.exit ], [ %.val23, %Vec_PtrAllocExact.exit ]
  %24 = getelementptr i8, ptr %23, i64 8
  %.val25.val = load ptr, ptr %24, align 8, !tbaa !32
  %25 = getelementptr inbounds nuw ptr, ptr %.val25.val, i64 %indvars.iv
  %26 = load ptr, ptr %25, align 8, !tbaa !34
  %27 = tail call ptr @Ptr_AbcDeriveBox(ptr noundef %26)
  %28 = icmp eq i32 %22, %21
  br i1 %28, label %29, label %.Vec_PtrGrow.exit11_crit_edge.i

.Vec_PtrGrow.exit11_crit_edge.i:                  ; preds = %.lr.ph
  %.pre.i = load ptr, ptr %13, align 8, !tbaa !32
  br label %Vec_PtrPush.exit

29:                                               ; preds = %.lr.ph
  %30 = icmp slt i32 %21, 16
  br i1 %30, label %31, label %38

31:                                               ; preds = %29
  %32 = load ptr, ptr %13, align 8, !tbaa !32
  %.not9.i.i = icmp eq ptr %32, null
  br i1 %.not9.i.i, label %35, label %33

33:                                               ; preds = %31
  %34 = tail call dereferenceable_or_null(128) ptr @realloc(ptr noundef nonnull %32, i64 noundef 128) #21
  br label %Vec_PtrGrow.exit.i

35:                                               ; preds = %31
  %36 = tail call noalias dereferenceable_or_null(128) ptr @malloc(i64 noundef 128) #20
  br label %Vec_PtrGrow.exit.i

Vec_PtrGrow.exit.i:                               ; preds = %35, %33
  %37 = phi ptr [ %34, %33 ], [ %36, %35 ]
  store ptr %37, ptr %13, align 8, !tbaa !32
  store i32 16, ptr %6, align 8, !tbaa !36
  br label %Vec_PtrPush.exit

38:                                               ; preds = %29
  %39 = shl nuw nsw i32 %21, 1
  %40 = load ptr, ptr %13, align 8, !tbaa !32
  %.not9.i10.i = icmp eq ptr %40, null
  %41 = zext nneg i32 %39 to i64
  %42 = shl nuw nsw i64 %41, 3
  br i1 %.not9.i10.i, label %45, label %43

43:                                               ; preds = %38
  %44 = tail call ptr @realloc(ptr noundef nonnull %40, i64 noundef %42) #21
  br label %47

45:                                               ; preds = %38
  %46 = tail call noalias ptr @malloc(i64 noundef %42) #20
  br label %47

47:                                               ; preds = %45, %43
  %48 = phi ptr [ %44, %43 ], [ %46, %45 ]
  store ptr %48, ptr %13, align 8, !tbaa !32
  store i32 %39, ptr %6, align 8, !tbaa !36
  br label %Vec_PtrPush.exit

Vec_PtrPush.exit:                                 ; preds = %.Vec_PtrGrow.exit11_crit_edge.i, %Vec_PtrGrow.exit.i, %47
  %49 = phi i32 [ %21, %.Vec_PtrGrow.exit11_crit_edge.i ], [ %39, %47 ], [ 16, %Vec_PtrGrow.exit.i ]
  %50 = phi ptr [ %.pre.i, %.Vec_PtrGrow.exit11_crit_edge.i ], [ %48, %47 ], [ %37, %Vec_PtrGrow.exit.i ]
  %51 = add nuw nsw i32 %22, 1
  store i32 %51, ptr %7, align 4, !tbaa !35
  %52 = zext nneg i32 %22 to i64
  %53 = getelementptr inbounds nuw ptr, ptr %50, i64 %52
  store ptr %27, ptr %53, align 8, !tbaa !34
  %indvars.iv.next = add nuw nsw i64 %indvars.iv, 1
  %54 = load ptr, ptr %2, align 8, !tbaa !48
  %55 = getelementptr i8, ptr %54, i64 4
  %.val21 = load i32, ptr %55, align 4, !tbaa !35
  %56 = sext i32 %.val21 to i64
  %57 = icmp slt i64 %indvars.iv.next, %56
  br i1 %57, label %.lr.ph, label %.critedge.preheader, !llvm.loop !49

.lr.ph38:                                         ; preds = %.critedge.preheader, %.critedge
  %58 = phi ptr [ %96, %.critedge ], [ %18, %.critedge.preheader ]
  %59 = phi i32 [ %97, %.critedge ], [ %15, %.critedge.preheader ]
  %60 = phi i32 [ %98, %.critedge ], [ %16, %.critedge.preheader ]
  %indvars.iv40 = phi i64 [ %indvars.iv.next41, %.critedge ], [ 0, %.critedge.preheader ]
  %61 = getelementptr i8, ptr %58, i64 8
  %.val26.val = load ptr, ptr %61, align 8, !tbaa !32
  %62 = getelementptr inbounds nuw ptr, ptr %.val26.val, i64 %indvars.iv40
  %63 = load ptr, ptr %62, align 8, !tbaa !34
  %64 = icmp eq ptr %63, null
  br i1 %64, label %.critedge, label %65

65:                                               ; preds = %.lr.ph38
  %66 = getelementptr i8, ptr %63, i64 20
  %.val = load i32, ptr %66, align 4
  %67 = and i32 %.val, 15
  %.not = icmp eq i32 %67, 7
  br i1 %.not, label %68, label %.critedge

68:                                               ; preds = %65
  %69 = tail call ptr @Ptr_AbcDeriveNode(ptr noundef nonnull %63)
  %70 = icmp eq i32 %60, %59
  br i1 %70, label %71, label %.Vec_PtrGrow.exit11_crit_edge.i27

.Vec_PtrGrow.exit11_crit_edge.i27:                ; preds = %68
  %.pre.i29 = load ptr, ptr %13, align 8, !tbaa !32
  br label %Vec_PtrPush.exit33

71:                                               ; preds = %68
  %72 = icmp slt i32 %59, 16
  br i1 %72, label %73, label %80

73:                                               ; preds = %71
  %74 = load ptr, ptr %13, align 8, !tbaa !32
  %.not9.i.i31 = icmp eq ptr %74, null
  br i1 %.not9.i.i31, label %77, label %75

75:                                               ; preds = %73
  %76 = tail call dereferenceable_or_null(128) ptr @realloc(ptr noundef nonnull %74, i64 noundef 128) #21
  br label %Vec_PtrGrow.exit.i32

77:                                               ; preds = %73
  %78 = tail call noalias dereferenceable_or_null(128) ptr @malloc(i64 noundef 128) #20
  br label %Vec_PtrGrow.exit.i32

Vec_PtrGrow.exit.i32:                             ; preds = %77, %75
  %79 = phi ptr [ %76, %75 ], [ %78, %77 ]
  store ptr %79, ptr %13, align 8, !tbaa !32
  store i32 16, ptr %6, align 8, !tbaa !36
  br label %Vec_PtrPush.exit33

80:                                               ; preds = %71
  %81 = shl nuw nsw i32 %59, 1
  %82 = load ptr, ptr %13, align 8, !tbaa !32
  %.not9.i10.i30 = icmp eq ptr %82, null
  %83 = zext nneg i32 %81 to i64
  %84 = shl nuw nsw i64 %83, 3
  br i1 %.not9.i10.i30, label %87, label %85

85:                                               ; preds = %80
  %86 = tail call ptr @realloc(ptr noundef nonnull %82, i64 noundef %84) #21
  br label %89

87:                                               ; preds = %80
  %88 = tail call noalias ptr @malloc(i64 noundef %84) #20
  br label %89

89:                                               ; preds = %87, %85
  %90 = phi ptr [ %86, %85 ], [ %88, %87 ]
  store ptr %90, ptr %13, align 8, !tbaa !32
  store i32 %81, ptr %6, align 8, !tbaa !36
  br label %Vec_PtrPush.exit33

Vec_PtrPush.exit33:                               ; preds = %.Vec_PtrGrow.exit11_crit_edge.i27, %Vec_PtrGrow.exit.i32, %89
  %91 = phi i32 [ %59, %.Vec_PtrGrow.exit11_crit_edge.i27 ], [ %81, %89 ], [ 16, %Vec_PtrGrow.exit.i32 ]
  %92 = phi ptr [ %.pre.i29, %.Vec_PtrGrow.exit11_crit_edge.i27 ], [ %90, %89 ], [ %79, %Vec_PtrGrow.exit.i32 ]
  %93 = add nsw i32 %60, 1
  store i32 %93, ptr %7, align 4, !tbaa !35
  %94 = sext i32 %60 to i64
  %95 = getelementptr inbounds ptr, ptr %92, i64 %94
  store ptr %69, ptr %95, align 8, !tbaa !34
  %.pre = load ptr, ptr %17, align 8, !tbaa !30
  br label %.critedge

.critedge:                                        ; preds = %Vec_PtrPush.exit33, %65, %.lr.ph38
  %96 = phi ptr [ %.pre, %Vec_PtrPush.exit33 ], [ %58, %65 ], [ %58, %.lr.ph38 ]
  %97 = phi i32 [ %91, %Vec_PtrPush.exit33 ], [ %59, %65 ], [ %59, %.lr.ph38 ]
  %98 = phi i32 [ %93, %Vec_PtrPush.exit33 ], [ %60, %65 ], [ %60, %.lr.ph38 ]
  %indvars.iv.next41 = add nuw nsw i64 %indvars.iv40, 1
  %99 = getelementptr i8, ptr %96, i64 4
  %.val22 = load i32, ptr %99, align 4, !tbaa !35
  %100 = sext i32 %.val22 to i64
  %101 = icmp slt i64 %indvars.iv.next41, %100
  br i1 %101, label %.lr.ph38, label %.critedge2, !llvm.loop !50

.critedge2:                                       ; preds = %.critedge, %.critedge.preheader
  ret ptr %6
}